target datalayout = "e-m:e-p270:32:32-p271:32:32-p272:64:64-i64:64-i128:128-f80:128-n8:16:32:64-S128"
target triple = "x86_64-pc-linux-gnu"

%struct.Curl_llist_node = type { ptr, ptr, ptr, ptr }
%struct.Curl_ssl_scache_peer = type { ptr, ptr, ptr, ptr, %struct.Curl_llist, ptr, ptr, [32 x i8], [32 x i8], i64, i64, i8 }
%struct.Curl_llist = type { ptr, ptr, ptr, i64 }
%struct.Curl_easy = type { i32, i64, i64, ptr, %struct.Curl_llist_node, %struct.Curl_llist_node, i32, i32, %struct.Curl_message, %struct.easy_pollset, %struct.Names, ptr, ptr, ptr, ptr, %struct.SingleRequest, %struct.UserDefined, ptr, ptr, ptr, %struct.Progress, %struct.UrlState, ptr, %struct.PureInfo, %struct.curl_tlssessioninfo }
%struct.Curl_message = type { %struct.Curl_llist_node, %struct.CURLMsg }
%struct.CURLMsg = type { i32, ptr, %union.anon }
%union.anon = type { ptr }
%struct.easy_pollset = type { [5 x i32], i32, [5 x i8] }
%struct.Names = type { ptr, i32 }
%struct.SingleRequest = type <{ i64, i64, i64, i64, %struct.curltime, i32, i32, i32, i32, i64, i32, i32, i8, i8, [2 x i8], i32, ptr, ptr, %struct.bufq, i64, i64, ptr, ptr, %union.anon.0, ptr, i8, i32, [3 x i8] }>
%struct.curltime = type { i64, i32 }
%struct.bufq = type { ptr, ptr, ptr, ptr, i64, i64, i64, i32 }
%union.anon.0 = type { ptr }
%struct.UserDefined = type <{ ptr, ptr, ptr, ptr, ptr, ptr, i64, i64, i64, ptr, ptr, i64, ptr, ptr, ptr, ptr, ptr, ptr, ptr, ptr, ptr, ptr, ptr, ptr, ptr, ptr, ptr, ptr, ptr, ptr, ptr, ptr, ptr, ptr, ptr, i64, i64, i64, i64, i64, i64, i64, i64, i64, ptr, ptr, %struct.curl_mimepart, ptr, ptr, ptr, i64, %struct.ssl_config_data, %struct.ssl_config_data, ptr, i16, i8, i8, %struct.ssl_general_config, i32, i32, i32, [4 x i8], ptr, ptr, i64, i32, i8, i8, i8, i8, ptr, ptr, ptr, i32, [4 x i8], [74 x ptr], [8 x ptr], i32, i32, i32, [4 x i8], ptr, i32, [4 x i8], ptr, ptr, ptr, ptr, ptr, i32, i32, i32, i32, i32, i32, i32, i32, i64, ptr, ptr, i64, ptr, i64, ptr, ptr, ptr, ptr, i32, i16, i16, i16, i8, i8, i8, i8, i8, i8, i8, i8, i64, [6 x i8] }>
%struct.curl_mimepart = type { ptr, ptr, i32, i32, ptr, ptr, ptr, ptr, ptr, ptr, ptr, ptr, ptr, ptr, ptr, i64, %struct.mime_state, ptr, %struct.mime_encoder_state, i64 }
%struct.mime_state = type { i32, ptr, i64 }
%struct.mime_encoder_state = type { i64, i64, i64, [256 x i8] }
%struct.ssl_config_data = type { %struct.ssl_primary_config, i64, ptr, ptr, ptr, ptr, ptr, ptr, ptr, i16 }
%struct.ssl_primary_config = type { ptr, ptr, ptr, ptr, ptr, ptr, ptr, ptr, ptr, ptr, ptr, ptr, ptr, ptr, i8, i32, i8, i8 }
%struct.ssl_general_config = type { i32 }
%struct.Progress = type { i64, %struct.pgrs_dir, %struct.pgrs_dir, i64, i64, i32, i32, i64, i64, i64, i64, i64, i64, i64, i64, i64, %struct.curltime, %struct.curltime, %struct.curltime, %struct.curltime, %struct.curltime, [6 x i64], [6 x %struct.curltime], i32, i8 }
%struct.pgrs_dir = type { i64, i64, i64, %struct.pgrs_measure }
%struct.pgrs_measure = type { %struct.curltime, i64 }
%struct.UrlState = type { %struct.curltime, i64, i64, %struct.dynbuf, ptr, i64, ptr, i32, i32, i32, ptr, i32, i64, i32, ptr, %struct.digestdata, %struct.digestdata, %struct.auth, %struct.auth, %struct.Curl_async, ptr, i8, %struct.curltime, %struct.Curl_tree, %struct.Curl_llist, [15 x %struct.time_node], ptr, ptr, i64, i64, i64, i64, [32 x i8], i64, ptr, ptr, ptr, %struct.urlpieces, ptr, ptr, ptr, ptr, ptr, i64, %struct.dynbuf, %struct.Curl_llist, [2 x %struct.curl_header], ptr, i32, ptr, ptr, %struct.store_netrc, %struct.dynamically_allocated_data, i8, i8, i8, i8, i32 }
%struct.digestdata = type { ptr, ptr, ptr, ptr, ptr, ptr, i32, i8, i8 }
%struct.auth = type { i64, i64, i64, i8 }
%struct.Curl_async = type { ptr, ptr, ptr, ptr, i32, i32, i8 }
%struct.Curl_tree = type { ptr, ptr, ptr, ptr, %struct.curltime, ptr }
%struct.time_node = type { %struct.Curl_llist_node, %struct.curltime, i32 }
%struct.urlpieces = type { ptr, ptr, ptr, ptr, ptr, ptr, ptr, ptr }
%struct.dynbuf = type { ptr, i64, i64, i64 }
%struct.curl_header = type { ptr, ptr, i64, i64, i32, ptr }
%struct.store_netrc = type { %struct.dynbuf, ptr, i8 }
%struct.dynamically_allocated_data = type { ptr, ptr, ptr, ptr, ptr, ptr, ptr, ptr, ptr, ptr, ptr, ptr, ptr, ptr }
%struct.PureInfo = type { i32, i32, i32, i64, i64, i64, i64, i64, i64, i64, ptr, ptr, i64, i32, %struct.ip_quadruple, i32, ptr, i32, %struct.curl_certinfo, i32, i8 }
%struct.ip_quadruple = type { [46 x i8], [46 x i8], i32, i32 }
%struct.curl_certinfo = type { i32, ptr }
%struct.curl_tlssessioninfo = type { i32, ptr }
%struct.Curl_share = type { i32, i32, i32, ptr, ptr, ptr, %struct.cpool, %struct.Curl_hash, ptr, %struct.PslCache, ptr, ptr }
%struct.cpool = type { %struct.Curl_hash, i64, i64, i64, %struct.curltime, %struct.Curl_llist, ptr, ptr, ptr, ptr, i8 }
%struct.Curl_hash = type { ptr, ptr, ptr, ptr, i64, i64 }
%struct.PslCache = type { ptr, i64, i8 }

@Curl_cfree = external global ptr, align 8

; Function Attrs: nounwind uwtable
define hidden void @Curl_ssl_scache_unlock(ptr noundef %0) #0 {
  %2 = alloca ptr, align 8
  store ptr %0, ptr %2, align 8, !tbaa !53
  %3 = load ptr, ptr %2, align 8, !tbaa !53
  %4 = getelementptr inbounds nuw %struct.Curl_easy, ptr %3, i32 0, i32 13
  %5 = load ptr, ptr %4, align 8, !tbaa !55
  %6 = icmp ne ptr %5, null
  br i1 %6, label %7, label %18

7:                                                ; preds = %1
  %8 = load ptr, ptr %2, align 8, !tbaa !53
  %9 = getelementptr inbounds nuw %struct.Curl_easy, ptr %8, i32 0, i32 13
  %10 = load ptr, ptr %9, align 8, !tbaa !55
  %11 = getelementptr inbounds nuw %struct.Curl_share, ptr %10, i32 0, i32 1
  %12 = load i32, ptr %11, align 4, !tbaa !116
  %13 = and i32 %12, 16
  %14 = icmp ne i32 %13, 0
  br i1 %14, label %15, label %18

15:                                               ; preds = %7
  %16 = load ptr, ptr %2, align 8, !tbaa !53
  %17 = call i32 @Curl_share_unlock(ptr noundef %16, i32 noundef 4)
  br label %18

18:                                               ; preds = %15, %7, %1
  ret void
}

; Function Attrs: nounwind uwtable
define internal void @cf_ssl_scache_clear_peer(ptr noundef %0) #0 {
  %2 = alloca ptr, align 8
  store ptr %0, ptr %2, align 8, !tbaa !33
  %3 = load ptr, ptr %2, align 8, !tbaa !33
  %4 = getelementptr inbounds nuw %struct.Curl_ssl_scache_peer, ptr %3, i32 0, i32 4
  call void @Curl_llist_destroy(ptr noundef %4, ptr noundef null)
  %5 = load ptr, ptr %2, align 8, !tbaa !33
  %6 = getelementptr inbounds nuw %struct.Curl_ssl_scache_peer, ptr %5, i32 0, i32 5
  %7 = load ptr, ptr %6, align 8, !tbaa !46
  %8 = icmp ne ptr %7, null
  br i1 %8, label %9, label %26

9:                                                ; preds = %1
  br label %10

10:                                               ; preds = %9
  br label %11

11:                                               ; preds = %10
  %12 = load ptr, ptr %2, align 8, !tbaa !33
  %13 = getelementptr inbounds nuw %struct.Curl_ssl_scache_peer, ptr %12, i32 0, i32 6
  %14 = load ptr, ptr %13, align 8, !tbaa !47
  %15 = icmp ne ptr %14, null
  br i1 %15, label %16, label %23

16:                                               ; preds = %11
  %17 = load ptr, ptr %2, align 8, !tbaa !33
  %18 = getelementptr inbounds nuw %struct.Curl_ssl_scache_peer, ptr %17, i32 0, i32 6
  %19 = load ptr, ptr %18, align 8, !tbaa !47
  %20 = load ptr, ptr %2, align 8, !tbaa !33
  %21 = getelementptr inbounds nuw %struct.Curl_ssl_scache_peer, ptr %20, i32 0, i32 5
  %22 = load ptr, ptr %21, align 8, !tbaa !46
  call void %19(ptr noundef %22)
  br label %23

23:                                               ; preds = %16, %11
  %24 = load ptr, ptr %2, align 8, !tbaa !33
  %25 = getelementptr inbounds nuw %struct.Curl_ssl_scache_peer, ptr %24, i32 0, i32 5
  store ptr null, ptr %25, align 8, !tbaa !46
  br label %26

26:                                               ; preds = %23, %1
  %27 = load ptr, ptr %2, align 8, !tbaa !33
  %28 = getelementptr inbounds nuw %struct.Curl_ssl_scache_peer, ptr %27, i32 0, i32 6
  store ptr null, ptr %28, align 8, !tbaa !47
  br label %29

29:                                               ; preds = %26
  %30 = load ptr, ptr @Curl_cfree, align 8, !tbaa !14
  %31 = load ptr, ptr %2, align 8, !tbaa !33
  %32 = getelementptr inbounds nuw %struct.Curl_ssl_scache_peer, ptr %31, i32 0, i32 1
  %33 = load ptr, ptr %32, align 8, !tbaa !48
  call void %30(ptr noundef %33)
  %34 = load ptr, ptr %2, align 8, !tbaa !33
  %35 = getelementptr inbounds nuw %struct.Curl_ssl_scache_peer, ptr %34, i32 0, i32 1
  store ptr null, ptr %35, align 8, !tbaa !48
  br label %36

36:                                               ; preds = %29
  br label %37

37:                                               ; preds = %36
  %38 = load ptr, ptr @Curl_cfree, align 8, !tbaa !14
  %39 = load ptr, ptr %2, align 8, !tbaa !33
  %40 = getelementptr inbounds nuw %struct.Curl_ssl_scache_peer, ptr %39, i32 0, i32 2
  %41 = load ptr, ptr %40, align 8, !tbaa !49
  call void %38(ptr noundef %41)
  %42 = load ptr, ptr %2, align 8, !tbaa !33
  %43 = getelementptr inbounds nuw %struct.Curl_ssl_scache_peer, ptr %42, i32 0, i32 2
  store ptr null, ptr %43, align 8, !tbaa !49
  br label %44

44:                                               ; preds = %37
  br label %45

45:                                               ; preds = %44
  %46 = load ptr, ptr @Curl_cfree, align 8, !tbaa !14
  %47 = load ptr, ptr %2, align 8, !tbaa !33
  %48 = getelementptr inbounds nuw %struct.Curl_ssl_scache_peer, ptr %47, i32 0, i32 3
  %49 = load ptr, ptr %48, align 8, !tbaa !50
  call void %46(ptr noundef %49)
  %50 = load ptr, ptr %2, align 8, !tbaa !33
  %51 = getelementptr inbounds nuw %struct.Curl_ssl_scache_peer, ptr %50, i32 0, i32 3
  store ptr null, ptr %51, align 8, !tbaa !50
  br label %52

52:                                               ; preds = %45
  br label %53

53:                                               ; preds = %52
  %54 = load ptr, ptr @Curl_cfree, align 8, !tbaa !14
  %55 = load ptr, ptr %2, align 8, !tbaa !33
  %56 = getelementptr inbounds nuw %struct.Curl_ssl_scache_peer, ptr %55, i32 0, i32 0
  %57 = load ptr, ptr %56, align 8, !tbaa !51
  call void %54(ptr noundef %57)
  %58 = load ptr, ptr %2, align 8, !tbaa !33
  %59 = getelementptr inbounds nuw %struct.Curl_ssl_scache_peer, ptr %58, i32 0, i32 0
  store ptr null, ptr %59, align 8, !tbaa !51
  br label %60

60:                                               ; preds = %53
  %61 = load ptr, ptr %2, align 8, !tbaa !33
  %62 = getelementptr inbounds nuw %struct.Curl_ssl_scache_peer, ptr %61, i32 0, i32 10
  store i64 0, ptr %62, align 8, !tbaa !52
  %63 = load ptr, ptr %2, align 8, !tbaa !33
  %64 = getelementptr inbounds nuw %struct.Curl_ssl_scache_peer, ptr %63, i32 0, i32 11
  %65 = load i8, ptr %64, align 8
  %66 = and i8 %65, -2
  %67 = or i8 %66, 0
  store i8 %67, ptr %64, align 8
  ret void
}

; Function Attrs: nounwind uwtable
define hidden void @Curl_ssl_scache_lock(ptr noundef %0) #0 {
  %2 = alloca ptr, align 8
  store ptr %0, ptr %2, align 8, !tbaa !53
  %3 = load ptr, ptr %2, align 8, !tbaa !53
  %4 = getelementptr inbounds nuw %struct.Curl_easy, ptr %3, i32 0, i32 13
  %5 = load ptr, ptr %4, align 8, !tbaa !55
  %6 = icmp ne ptr %5, null
  br i1 %6, label %7, label %18

7:                                                ; preds = %1
  %8 = load ptr, ptr %2, align 8, !tbaa !53
  %9 = getelementptr inbounds nuw %struct.Curl_easy, ptr %8, i32 0, i32 13
  %10 = load ptr, ptr %9, align 8, !tbaa !55
  %11 = getelementptr inbounds nuw %struct.Curl_share, ptr %10, i32 0, i32 1
  %12 = load i32, ptr %11, align 4, !tbaa !116
  %13 = and i32 %12, 16
  %14 = icmp ne i32 %13, 0
  br i1 %14, label %15, label %18

15:                                               ; preds = %7
  %16 = load ptr, ptr %2, align 8, !tbaa !53
  %17 = call i32 @Curl_share_lock(ptr noundef %16, i32 noundef 4, i32 noundef 2)
  br label %18

18:                                               ; preds = %15, %7, %1
  ret void
}

; Function Attrs: nounwind uwtable
define hidden void @Curl_ssl_scache_remove_all(ptr noundef %0, ptr noundef %1, ptr noundef %2) #0 {
  %4 = alloca ptr, align 8
  %5 = alloca ptr, align 8
  %6 = alloca ptr, align 8
  %7 = alloca ptr, align 8
  %8 = alloca ptr, align 8
  %9 = alloca ptr, align 8
  %10 = alloca i32, align 4
  %11 = alloca i32, align 4
  store ptr %0, ptr %4, align 8, !tbaa !123
  store ptr %1, ptr %5, align 8, !tbaa !53
  store ptr %2, ptr %6, align 8, !tbaa !3
  call void @llvm.lifetime.start.p0(i64 8, ptr %7) #6
  %12 = load ptr, ptr %5, align 8, !tbaa !53
  %13 = getelementptr inbounds nuw %struct.Curl_easy, ptr %12, i32 0, i32 21
  %14 = getelementptr inbounds nuw %struct.UrlState, ptr %13, i32 0, i32 10
  %15 = load ptr, ptr %14, align 8, !tbaa !173
  store ptr %15, ptr %7, align 8, !tbaa !31
  call void @llvm.lifetime.start.p0(i64 8, ptr %8) #6
  %16 = load ptr, ptr %4, align 8, !tbaa !123
  %17 = call ptr @Curl_ssl_cf_get_primary_config(ptr noundef %16)
  store ptr %17, ptr %8, align 8, !tbaa !129
  call void @llvm.lifetime.start.p0(i64 8, ptr %9) #6
  store ptr null, ptr %9, align 8, !tbaa !33
  call void @llvm.lifetime.start.p0(i64 4, ptr %10) #6
  %18 = load ptr, ptr %7, align 8, !tbaa !31
  %19 = icmp ne ptr %18, null
  br i1 %19, label %21, label %20

20:                                               ; preds = %3
  store i32 1, ptr %11, align 4
  br label %37

21:                                               ; preds = %3
  %22 = load ptr, ptr %5, align 8, !tbaa !53
  call void @Curl_ssl_scache_lock(ptr noundef %22)
  %23 = load ptr, ptr %5, align 8, !tbaa !53
  %24 = load ptr, ptr %7, align 8, !tbaa !31
  %25 = load ptr, ptr %6, align 8, !tbaa !3
  %26 = load ptr, ptr %8, align 8, !tbaa !129
  %27 = call i32 @cf_ssl_find_peer_by_key(ptr noundef %23, ptr noundef %24, ptr noundef %25, ptr noundef %26, ptr noundef %9)
  store i32 %27, ptr %10, align 4, !tbaa !10
  %28 = load i32, ptr %10, align 4, !tbaa !10
  %29 = icmp ne i32 %28, 0
  br i1 %29, label %35, label %30

30:                                               ; preds = %21
  %31 = load ptr, ptr %9, align 8, !tbaa !33
  %32 = icmp ne ptr %31, null
  br i1 %32, label %33, label %35

33:                                               ; preds = %30
  %34 = load ptr, ptr %9, align 8, !tbaa !33
  call void @cf_ssl_scache_clear_peer(ptr noundef %34)
  br label %35

35:                                               ; preds = %33, %30, %21
  %36 = load ptr, ptr %5, align 8, !tbaa !53
  call void @Curl_ssl_scache_unlock(ptr noundef %36)
  store i32 0, ptr %11, align 4
  br label %37

37:                                               ; preds = %35, %20
  call void @llvm.lifetime.end.p0(i64 4, ptr %10) #6
  call void @llvm.lifetime.end.p0(i64 8, ptr %9) #6
  call void @llvm.lifetime.end.p0(i64 8, ptr %8) #6
  call void @llvm.lifetime.end.p0(i64 8, ptr %7) #6
  %38 = load i32, ptr %11, align 4
  switch i32 %38, label %40 [
    i32 0, label %39
    i32 1, label %39
  ]

39:                                               ; preds = %37, %37
  ret void

40:                                               ; preds = %37
  unreachable
}