; Function Attrs: nounwind uwtable
define hidden void @Curl_ssl_scache_remove_all(ptr noundef %0, ptr noundef %1, ptr noundef %2) local_unnamed_addr #0 {
  %4 = alloca ptr, align 8
  %5 = getelementptr inbounds nuw i8, ptr %1, i64 3232
  %6 = load ptr, ptr %5, align 8, !tbaa !155
  %7 = tail call ptr @Curl_ssl_cf_get_primary_config(ptr noundef %0) #9
  call void @llvm.lifetime.start.p0(i64 8, ptr nonnull %4) #9
  %.not = icmp eq ptr %6, null
  br i1 %.not, label %Curl_ssl_scache_unlock.exit, label %8

8:                                                ; preds = %3
  %9 = getelementptr inbounds nuw i8, ptr %1, i64 224
  %10 = load ptr, ptr %9, align 8, !tbaa !45
  %.not.i = icmp eq ptr %10, null
  br i1 %.not.i, label %Curl_ssl_scache_lock.exit, label %11

11:                                               ; preds = %8
  %12 = getelementptr inbounds nuw i8, ptr %10, i64 4
  %13 = load i32, ptr %12, align 4, !tbaa !106
  %14 = and i32 %13, 16
  %.not3.i = icmp eq i32 %14, 0
  br i1 %.not3.i, label %Curl_ssl_scache_lock.exit, label %15

15:                                               ; preds = %11
  %16 = tail call i32 @Curl_share_lock(ptr noundef nonnull %1, i32 noundef 4, i32 noundef 2) #9
  br label %Curl_ssl_scache_lock.exit

Curl_ssl_scache_lock.exit:                        ; preds = %8, %11, %15
  %17 = call fastcc i32 @cf_ssl_find_peer_by_key(ptr noundef nonnull %1, ptr noundef nonnull %6, ptr noundef %2, ptr noundef %7, ptr noundef %4)
  %18 = icmp eq i32 %17, 0
  %19 = load ptr, ptr %4, align 8
  %20 = icmp ne ptr %19, null
  %or.cond = select i1 %18, i1 %20, i1 false
  br i1 %or.cond, label %21, label %46

21:                                               ; preds = %Curl_ssl_scache_lock.exit
  %22 = getelementptr inbounds nuw i8, ptr %19, i64 32
  tail call void @Curl_llist_destroy(ptr noundef nonnull %22, ptr noundef null) #9
  %23 = getelementptr inbounds nuw i8, ptr %19, i64 64
  %24 = load ptr, ptr %23, align 8, !tbaa !37
  %.not.i11 = icmp eq ptr %24, null
  br i1 %.not.i11, label %cf_ssl_scache_clear_peer.exit, label %25

25:                                               ; preds = %21
  %26 = getelementptr inbounds nuw i8, ptr %19, i64 72
  %27 = load ptr, ptr %26, align 8, !tbaa !38
  %.not18.i = icmp eq ptr %27, null
  br i1 %.not18.i, label %29, label %28

28:                                               ; preds = %25
  tail call void %27(ptr noundef nonnull %24) #9
  br label %29

29:                                               ; preds = %28, %25
  store ptr null, ptr %23, align 8, !tbaa !37
  br label %cf_ssl_scache_clear_peer.exit

cf_ssl_scache_clear_peer.exit:                    ; preds = %21, %29
  %30 = getelementptr inbounds nuw i8, ptr %19, i64 72
  store ptr null, ptr %30, align 8, !tbaa !38
  %31 = load ptr, ptr @Curl_cfree, align 8, !tbaa !3
  %32 = getelementptr inbounds nuw i8, ptr %19, i64 8
  %33 = load ptr, ptr %32, align 8, !tbaa !39
  tail call void %31(ptr noundef %33) #9
  store ptr null, ptr %32, align 8, !tbaa !39
  %34 = load ptr, ptr @Curl_cfree, align 8, !tbaa !3
  %35 = getelementptr inbounds nuw i8, ptr %19, i64 16
  %36 = load ptr, ptr %35, align 8, !tbaa !40
  tail call void %34(ptr noundef %36) #9
  store ptr null, ptr %35, align 8, !tbaa !40
  %37 = load ptr, ptr @Curl_cfree, align 8, !tbaa !3
  %38 = getelementptr inbounds nuw i8, ptr %19, i64 24
  %39 = load ptr, ptr %38, align 8, !tbaa !41
  tail call void %37(ptr noundef %39) #9
  store ptr null, ptr %38, align 8, !tbaa !41
  %40 = load ptr, ptr @Curl_cfree, align 8, !tbaa !3
  %41 = load ptr, ptr %19, align 8, !tbaa !42
  tail call void %40(ptr noundef %41) #9
  store ptr null, ptr %19, align 8, !tbaa !42
  %42 = getelementptr inbounds nuw i8, ptr %19, i64 152
  store i64 0, ptr %42, align 8, !tbaa !43
  %43 = getelementptr inbounds nuw i8, ptr %19, i64 160
  %44 = load i8, ptr %43, align 8
  %45 = and i8 %44, -2
  store i8 %45, ptr %43, align 8
  br label %46

46:                                               ; preds = %cf_ssl_scache_clear_peer.exit, %Curl_ssl_scache_lock.exit
  %47 = load ptr, ptr %9, align 8, !tbaa !45
  %.not.i12 = icmp eq ptr %47, null
  br i1 %.not.i12, label %Curl_ssl_scache_unlock.exit, label %48

48:                                               ; preds = %46
  %49 = getelementptr inbounds nuw i8, ptr %47, i64 4
  %50 = load i32, ptr %49, align 4, !tbaa !106
  %51 = and i32 %50, 16
  %.not3.i13 = icmp eq i32 %51, 0
  br i1 %.not3.i13, label %Curl_ssl_scache_unlock.exit, label %52

52:                                               ; preds = %48
  %53 = tail call i32 @Curl_share_unlock(ptr noundef nonnull %1, i32 noundef 4) #9
  br label %Curl_ssl_scache_unlock.exit

Curl_ssl_scache_unlock.exit:                      ; preds = %52, %48, %46, %3
  call void @llvm.lifetime.end.p0(i64 8, ptr nonnull %4) #9
  ret void
}